; ModuleID = '39/446.c'
source_filename = "39/446.c"
target datalayout = "e-m:e-p270:32:32-p271:32:32-p272:64:64-i64:64-f80:128-n8:16:32:64-S128"
target triple = "x86_64-pc-linux-gnu"

%struct.stu = type { [20 x i8], i32, i32, [2 x i8], [2 x i8], i32, i64 }

@.str = private unnamed_addr constant [3 x i8] c"%d\00", align 1
@.str.1 = private unnamed_addr constant [13 x i8] c"%s%d%d%s%s%d\00", align 1
@.str.2 = private unnamed_addr constant [2 x i8] c"Y\00", align 1
@.str.3 = private unnamed_addr constant [10 x i8] c"%s\0A%d\0A%d\0A\00", align 1

; Function Attrs: noinline nounwind uwtable
define dso_local i32 @main() #0 {
  %1 = alloca i32, align 4
  %2 = alloca [100 x %struct.stu], align 16
  %3 = alloca i32, align 4
  %4 = alloca i32, align 4
  %5 = alloca i32, align 4
  %6 = alloca i32, align 4
  %7 = alloca i32, align 4
  %8 = alloca i32, align 4
  %9 = alloca i32, align 4
  %10 = alloca i32, align 4
  %11 = alloca i32, align 4
  %12 = alloca i32, align 4
  store i32 0, i32* %1, align 4
  store i32 0, i32* %5, align 4
  store i32 0, i32* %6, align 4
  store i32 0, i32* %7, align 4
  store i32 0, i32* %8, align 4
  store i32 0, i32* %9, align 4
  store i32 0, i32* %12, align 4
  %13 = call i32 (i8*, ...) @__isoc99_scanf(i8* getelementptr inbounds ([3 x i8], [3 x i8]* @.str, i64 0, i64 0), i32* %4)
  store i32 0, i32* %3, align 4
  br label %14

14:                                               ; preds = %44, %0
  %15 = load i32, i32* %3, align 4
  %16 = load i32, i32* %4, align 4
  %17 = icmp slt i32 %15, %16
  br i1 %17, label %18, label %47

18:                                               ; preds = %14
  %19 = load i32, i32* %3, align 4
  %20 = sext i32 %19 to i64
  %21 = getelementptr inbounds [100 x %struct.stu], [100 x %struct.stu]* %2, i64 0, i64 %20
  %22 = getelementptr inbounds %struct.stu, %struct.stu* %21, i32 0, i32 0
  %23 = load i32, i32* %3, align 4
  %24 = sext i32 %23 to i64
  %25 = getelementptr inbounds [100 x %struct.stu], [100 x %struct.stu]* %2, i64 0, i64 %24
  %26 = getelementptr inbounds %struct.stu, %struct.stu* %25, i32 0, i32 1
  %27 = load i32, i32* %3, align 4
  %28 = sext i32 %27 to i64
  %29 = getelementptr inbounds [100 x %struct.stu], [100 x %struct.stu]* %2, i64 0, i64 %28
  %30 = getelementptr inbounds %struct.stu, %struct.stu* %29, i32 0, i32 2
  %31 = load i32, i32* %3, align 4
  %32 = sext i32 %31 to i64
  %33 = getelementptr inbounds [100 x %struct.stu], [100 x %struct.stu]* %2, i64 0, i64 %32
  %34 = getelementptr inbounds %struct.stu, %struct.stu* %33, i32 0, i32 3
  %35 = load i32, i32* %3, align 4
  %36 = sext i32 %35 to i64
  %37 = getelementptr inbounds [100 x %struct.stu], [100 x %struct.stu]* %2, i64 0, i64 %36
  %38 = getelementptr inbounds %struct.stu, %struct.stu* %37, i32 0, i32 4
  %39 = load i32, i32* %3, align 4
  %40 = sext i32 %39 to i64
  %41 = getelementptr inbounds [100 x %struct.stu], [100 x %struct.stu]* %2, i64 0, i64 %40
  %42 = getelementptr inbounds %struct.stu, %struct.stu* %41, i32 0, i32 5
  %43 = call i32 (i8*, ...) @__isoc99_scanf(i8* getelementptr inbounds ([13 x i8], [13 x i8]* @.str.1, i64 0, i64 0), [20 x i8]* %22, i32* %26, i32* %30, [2 x i8]* %34, [2 x i8]* %38, i32* %42)
  br label %44

44:                                               ; preds = %18
  %45 = load i32, i32* %3, align 4
  %46 = add nsw i32 %45, 1
  store i32 %46, i32* %3, align 4
  br label %14

47:                                               ; preds = %14
  store i32 0, i32* %3, align 4
  br label %48

48:                                               ; preds = %137, %47
  %49 = load i32, i32* %3, align 4
  %50 = load i32, i32* %4, align 4
  %51 = icmp slt i32 %49, %50
  br i1 %51, label %52, label %140

52:                                               ; preds = %48
  store i32 0, i32* %5, align 4
  store i32 0, i32* %6, align 4
  store i32 0, i32* %7, align 4
  store i32 0, i32* %8, align 4
  store i32 0, i32* %9, align 4
  %53 = load i32, i32* %3, align 4
  %54 = sext i32 %53 to i64
  %55 = getelementptr inbounds [100 x %struct.stu], [100 x %struct.stu]* %2, i64 0, i64 %54
  %56 = getelementptr inbounds %struct.stu, %struct.stu* %55, i32 0, i32 1
  %57 = load i32, i32* %56, align 4
  %58 = icmp sgt i32 %57, 80
  br i1 %58, label %59, label %67

59:                                               ; preds = %52
  %60 = load i32, i32* %3, align 4
  %61 = sext i32 %60 to i64
  %62 = getelementptr inbounds [100 x %struct.stu], [100 x %struct.stu]* %2, i64 0, i64 %61
  %63 = getelementptr inbounds %struct.stu, %struct.stu* %62, i32 0, i32 5
  %64 = load i32, i32* %63, align 16
  %65 = icmp sge i32 %64, 1
  br i1 %65, label %66, label %67

66:                                               ; preds = %59
  store i32 8000, i32* %5, align 4
  br label %67

67:                                               ; preds = %66, %59, %52
  %68 = load i32, i32* %3, align 4
  %69 = sext i32 %68 to i64
  %70 = getelementptr inbounds [100 x %struct.stu], [100 x %struct.stu]* %2, i64 0, i64 %69
  %71 = getelementptr inbounds %struct.stu, %struct.stu* %70, i32 0, i32 1
  %72 = load i32, i32* %71, align 4
  %73 = icmp sgt i32 %72, 85
  br i1 %73, label %74, label %82

74:                                               ; preds = %67
  %75 = load i32, i32* %3, align 4
  %76 = sext i32 %75 to i64
  %77 = getelementptr inbounds [100 x %struct.stu], [100 x %struct.stu]* %2, i64 0, i64 %76
  %78 = getelementptr inbounds %struct.stu, %struct.stu* %77, i32 0, i32 2
  %79 = load i32, i32* %78, align 8
  %80 = icmp sgt i32 %79, 80
  br i1 %80, label %81, label %82

81:                                               ; preds = %74
  store i32 4000, i32* %6, align 4
  br label %82

82:                                               ; preds = %81, %74, %67
  %83 = load i32, i32* %3, align 4
  %84 = sext i32 %83 to i64
  %85 = getelementptr inbounds [100 x %struct.stu], [100 x %struct.stu]* %2, i64 0, i64 %84
  %86 = getelementptr inbounds %struct.stu, %struct.stu* %85, i32 0, i32 1
  %87 = load i32, i32* %86, align 4
  %88 = icmp sgt i32 %87, 90
  br i1 %88, label %89, label %90

89:                                               ; preds = %82
  store i32 2000, i32* %7, align 4
  br label %90

90:                                               ; preds = %89, %82
  %91 = load i32, i32* %3, align 4
  %92 = sext i32 %91 to i64
  %93 = getelementptr inbounds [100 x %struct.stu], [100 x %struct.stu]* %2, i64 0, i64 %92
  %94 = getelementptr inbounds %struct.stu, %struct.stu* %93, i32 0, i32 2
  %95 = load i32, i32* %94, align 8
  %96 = icmp sgt i32 %95, 80
  br i1 %96, label %97, label %106

97:                                               ; preds = %90
  %98 = load i32, i32* %3, align 4
  %99 = sext i32 %98 to i64
  %100 = getelementptr inbounds [100 x %struct.stu], [100 x %struct.stu]* %2, i64 0, i64 %99
  %101 = getelementptr inbounds %struct.stu, %struct.stu* %100, i32 0, i32 3
  %102 = getelementptr inbounds [2 x i8], [2 x i8]* %101, i64 0, i64 0
  %103 = call i32 @strcmp(i8* %102, i8* getelementptr inbounds ([2 x i8], [2 x i8]* @.str.2, i64 0, i64 0)) #4
  %104 = icmp eq i32 %103, 0
  br i1 %104, label %105, label %106

105:                                              ; preds = %97
  store i32 850, i32* %9, align 4
  br label %106

106:                                              ; preds = %105, %97, %90
  %107 = load i32, i32* %3, align 4
  %108 = sext i32 %107 to i64
  %109 = getelementptr inbounds [100 x %struct.stu], [100 x %struct.stu]* %2, i64 0, i64 %108
  %110 = getelementptr inbounds %struct.stu, %struct.stu* %109, i32 0, i32 1
  %111 = load i32, i32* %110, align 4
  %112 = icmp sgt i32 %111, 85
  br i1 %112, label %113, label %122

113:                                              ; preds = %106
  %114 = load i32, i32* %3, align 4
  %115 = sext i32 %114 to i64
  %116 = getelementptr inbounds [100 x %struct.stu], [100 x %struct.stu]* %2, i64 0, i64 %115
  %117 = getelementptr inbounds %struct.stu, %struct.stu* %116, i32 0, i32 4
  %118 = getelementptr inbounds [2 x i8], [2 x i8]* %117, i64 0, i64 0
  %119 = call i32 @strcmp(i8* getelementptr inbounds ([2 x i8], [2 x i8]* @.str.2, i64 0, i64 0), i8* %118) #4
  %120 = icmp eq i32 %119, 0
  br i1 %120, label %121, label %122

121:                                              ; preds = %113
  store i32 1000, i32* %8, align 4
  br label %122

122:                                              ; preds = %121, %113, %106
  %123 = load i32, i32* %5, align 4
  %124 = load i32, i32* %6, align 4
  %125 = add nsw i32 %123, %124
  %126 = load i32, i32* %7, align 4
  %127 = add nsw i32 %125, %126
  %128 = load i32, i32* %8, align 4
  %129 = add nsw i32 %127, %128
  %130 = load i32, i32* %9, align 4
  %131 = add nsw i32 %129, %130
  %132 = sext i32 %131 to i64
  %133 = load i32, i32* %3, align 4
  %134 = sext i32 %133 to i64
  %135 = getelementptr inbounds [100 x %struct.stu], [100 x %struct.stu]* %2, i64 0, i64 %134
  %136 = getelementptr inbounds %struct.stu, %struct.stu* %135, i32 0, i32 6
  store i64 %132, i64* %136, align 8
  br label %137

137:                                              ; preds = %122
  %138 = load i32, i32* %3, align 4
  %139 = add nsw i32 %138, 1
  store i32 %139, i32* %3, align 4
  br label %48

140:                                              ; preds = %48
  store i32 0, i32* %3, align 4
  br label %141

141:                                              ; preds = %155, %140
  %142 = load i32, i32* %3, align 4
  %143 = load i32, i32* %4, align 4
  %144 = icmp slt i32 %142, %143
  br i1 %144, label %145, label %158

145:                                              ; preds = %141
  %146 = load i32, i32* %3, align 4
  %147 = sext i32 %146 to i64
  %148 = getelementptr inbounds [100 x %struct.stu], [100 x %struct.stu]* %2, i64 0, i64 %147
  %149 = getelementptr inbounds %struct.stu, %struct.stu* %148, i32 0, i32 6
  %150 = load i64, i64* %149, align 8
  %151 = load i32, i32* %12, align 4
  %152 = sext i32 %151 to i64
  %153 = add nsw i64 %152, %150
  %154 = trunc i64 %153 to i32
  store i32 %154, i32* %12, align 4
  br label %155

155:                                              ; preds = %145
  %156 = load i32, i32* %3, align 4
  %157 = add nsw i32 %156, 1
  store i32 %157, i32* %3, align 4
  br label %141

158:                                              ; preds = %141
  store i32 1, i32* %3, align 4
  br label %159

159:                                              ; preds = %201, %158
  %160 = load i32, i32* %3, align 4
  %161 = load i32, i32* %4, align 4
  %162 = icmp slt i32 %160, %161
  br i1 %162, label %163, label %204

163:                                              ; preds = %159
  %164 = load i32, i32* %3, align 4
  %165 = sext i32 %164 to i64
  %166 = getelementptr inbounds [100 x %struct.stu], [100 x %struct.stu]* %2, i64 0, i64 %165
  %167 = getelementptr inbounds %struct.stu, %struct.stu* %166, i32 0, i32 6
  %168 = load i64, i64* %167, align 8
  %169 = getelementptr inbounds [100 x %struct.stu], [100 x %struct.stu]* %2, i64 0, i64 0
  %170 = getelementptr inbounds %struct.stu, %struct.stu* %169, i32 0, i32 6
  %171 = load i64, i64* %170, align 8
  %172 = icmp sgt i64 %168, %171
  br i1 %172, label %173, label %200

173:                                              ; preds = %163
  %174 = getelementptr inbounds [100 x %struct.stu], [100 x %struct.stu]* %2, i64 0, i64 0
  %175 = getelementptr inbounds %struct.stu, %struct.stu* %174, i32 0, i32 6
  %176 = load i64, i64* %175, align 8
  %177 = trunc i64 %176 to i32
  store i32 %177, i32* %11, align 4
  %178 = load i32, i32* %3, align 4
  %179 = sext i32 %178 to i64
  %180 = getelementptr inbounds [100 x %struct.stu], [100 x %struct.stu]* %2, i64 0, i64 %179
  %181 = getelementptr inbounds %struct.stu, %struct.stu* %180, i32 0, i32 6
  %182 = load i64, i64* %181, align 8
  %183 = getelementptr inbounds [100 x %struct.stu], [100 x %struct.stu]* %2, i64 0, i64 0
  %184 = getelementptr inbounds %struct.stu, %struct.stu* %183, i32 0, i32 6
  store i64 %182, i64* %184, align 8
  %185 = load i32, i32* %11, align 4
  %186 = sext i32 %185 to i64
  %187 = load i32, i32* %3, align 4
  %188 = sext i32 %187 to i64
  %189 = getelementptr inbounds [100 x %struct.stu], [100 x %struct.stu]* %2, i64 0, i64 %188
  %190 = getelementptr inbounds %struct.stu, %struct.stu* %189, i32 0, i32 6
  store i64 %186, i64* %190, align 8
  %191 = getelementptr inbounds [100 x %struct.stu], [100 x %struct.stu]* %2, i64 0, i64 0
  %192 = getelementptr inbounds %struct.stu, %struct.stu* %191, i32 0, i32 0
  %193 = getelementptr inbounds [20 x i8], [20 x i8]* %192, i64 0, i64 0
  %194 = load i32, i32* %3, align 4
  %195 = sext i32 %194 to i64
  %196 = getelementptr inbounds [100 x %struct.stu], [100 x %struct.stu]* %2, i64 0, i64 %195
  %197 = getelementptr inbounds %struct.stu, %struct.stu* %196, i32 0, i32 0
  %198 = getelementptr inbounds [20 x i8], [20 x i8]* %197, i64 0, i64 0
  %199 = call i8* @strcpy(i8* %193, i8* %198) #5
  br label %200

200:                                              ; preds = %173, %163
  br label %201

201:                                              ; preds = %200
  %202 = load i32, i32* %3, align 4
  %203 = add nsw i32 %202, 1
  store i32 %203, i32* %3, align 4
  br label %159

204:                                              ; preds = %159
  %205 = getelementptr inbounds [100 x %struct.stu], [100 x %struct.stu]* %2, i64 0, i64 0
  %206 = getelementptr inbounds %struct.stu, %struct.stu* %205, i32 0, i32 0
  %207 = getelementptr inbounds [20 x i8], [20 x i8]* %206, i64 0, i64 0
  %208 = getelementptr inbounds [100 x %struct.stu], [100 x %struct.stu]* %2, i64 0, i64 0
  %209 = getelementptr inbounds %struct.stu, %struct.stu* %208, i32 0, i32 6
  %210 = load i64, i64* %209, align 8
  %211 = load i32, i32* %12, align 4
  %212 = call i32 (i8*, ...) @printf(i8* getelementptr inbounds ([10 x i8], [10 x i8]* @.str.3, i64 0, i64 0), i8* %207, i64 %210, i32 %211)
  ret i32 0
}

declare dso_local i32 @__isoc99_scanf(i8*, ...) #1

; Function Attrs: nounwind readonly
declare dso_local i32 @strcmp(i8*, i8*) #2

; Function Attrs: nounwind
declare dso_local i8* @strcpy(i8*, i8*) #3

declare dso_local i32 @printf(i8*, ...) #1


!llvm.module.flags = !{!0}
!llvm.ident = !{!1}

!0 = !{i32 1, !"wchar_size", i32 4}
!1 = !{!"clang version 10.0.0-4ubuntu1 "}
